target datalayout = "e-m:e-p270:32:32-p271:32:32-p272:64:64-i64:64-i128:128-f80:128-n8:16:32:64-S128"
target triple = "x86_64-pc-linux-gnu"

%struct.Vec_Int_t_ = type { i32, i32, ptr }
%struct.Min_Man_t_ = type { i32, i32, i32, i32, %struct.Vec_Int_t_, %struct.Vec_Str_t_, %struct.Vec_Str_t_, %struct.Vec_Int_t_, %struct.Vec_Int_t_ }
%struct.Vec_Str_t_ = type { i32, i32, ptr }

; Function Attrs: inlinehint nounwind uwtable
define internal ptr @Vec_StrArray(ptr noundef %0) #2 {
  %2 = alloca ptr, align 8
  store ptr %0, ptr %2, align 8, !tbaa !186
  %3 = load ptr, ptr %2, align 8, !tbaa !186
  %4 = getelementptr inbounds nuw %struct.Vec_Str_t_, ptr %3, i32 0, i32 2
  %5 = load ptr, ptr %4, align 8, !tbaa !187
  ret ptr %5
}

; Function Attrs: inlinehint nounwind uwtable
define internal void @Vec_IntGrow(ptr noundef %0, i32 noundef %1) #2 {
  %3 = alloca ptr, align 8
  %4 = alloca i32, align 4
  store ptr %0, ptr %3, align 8, !tbaa !35
  store i32 %1, ptr %4, align 4, !tbaa !10
  %5 = load ptr, ptr %3, align 8, !tbaa !35
  %6 = getelementptr inbounds nuw %struct.Vec_Int_t_, ptr %5, i32 0, i32 0
  %7 = load i32, ptr %6, align 8, !tbaa !54
  %8 = load i32, ptr %4, align 4, !tbaa !10
  %9 = icmp sge i32 %7, %8
  br i1 %9, label %10, label %11

10:                                               ; preds = %2
  br label %36

11:                                               ; preds = %2
  %12 = load ptr, ptr %3, align 8, !tbaa !35
  %13 = getelementptr inbounds nuw %struct.Vec_Int_t_, ptr %12, i32 0, i32 2
  %14 = load ptr, ptr %13, align 8, !tbaa !52
  %15 = icmp ne ptr %14, null
  br i1 %15, label %16, label %24

16:                                               ; preds = %11
  %17 = load ptr, ptr %3, align 8, !tbaa !35
  %18 = getelementptr inbounds nuw %struct.Vec_Int_t_, ptr %17, i32 0, i32 2
  %19 = load ptr, ptr %18, align 8, !tbaa !52
  %20 = load i32, ptr %4, align 4, !tbaa !10
  %21 = sext i32 %20 to i64
  %22 = mul i64 4, %21
  %23 = call ptr @realloc(ptr noundef %19, i64 noundef %22) #17
  br label %29

24:                                               ; preds = %11
  %25 = load i32, ptr %4, align 4, !tbaa !10
  %26 = sext i32 %25 to i64
  %27 = mul i64 4, %26
  %28 = call noalias ptr @malloc(i64 noundef %27) #15
  br label %29

29:                                               ; preds = %24, %16
  %30 = phi ptr [ %23, %16 ], [ %28, %24 ]
  %31 = load ptr, ptr %3, align 8, !tbaa !35
  %32 = getelementptr inbounds nuw %struct.Vec_Int_t_, ptr %31, i32 0, i32 2
  store ptr %30, ptr %32, align 8, !tbaa !52
  %33 = load i32, ptr %4, align 4, !tbaa !10
  %34 = load ptr, ptr %3, align 8, !tbaa !35
  %35 = getelementptr inbounds nuw %struct.Vec_Int_t_, ptr %34, i32 0, i32 0
  store i32 %33, ptr %35, align 8, !tbaa !54
  br label %36

36:                                               ; preds = %29, %10
  ret void
}

; Function Attrs: inlinehint nounwind uwtable
define internal void @Vec_IntClear(ptr noundef %0) #2 {
  %2 = alloca ptr, align 8
  store ptr %0, ptr %2, align 8, !tbaa !35
  %3 = load ptr, ptr %2, align 8, !tbaa !35
  %4 = getelementptr inbounds nuw %struct.Vec_Int_t_, ptr %3, i32 0, i32 1
  store i32 0, ptr %4, align 4, !tbaa !45
  ret void
}

; Function Attrs: inlinehint nounwind uwtable
define internal void @Min_ObjCleanValL(ptr noundef %0, i32 noundef %1) #2 {
  %3 = alloca ptr, align 8
  %4 = alloca i32, align 4
  store ptr %0, ptr %3, align 8, !tbaa !3
  store i32 %1, ptr %4, align 4, !tbaa !10
  %5 = load ptr, ptr %3, align 8, !tbaa !3
  %6 = getelementptr inbounds nuw %struct.Min_Man_t_, ptr %5, i32 0, i32 6
  %7 = call ptr @Vec_StrArray(ptr noundef %6)
  %8 = load i32, ptr %4, align 4, !tbaa !10
  %9 = sext i32 %8 to i64
  %10 = getelementptr inbounds i16, ptr %7, i64 %9
  store i16 514, ptr %10, align 2, !tbaa !55
  ret void
}

; Function Attrs: inlinehint nounwind uwtable
define internal void @Vec_IntPush(ptr noundef %0, i32 noundef %1) #2 {
  %3 = alloca ptr, align 8
  %4 = alloca i32, align 4
  store ptr %0, ptr %3, align 8, !tbaa !35
  store i32 %1, ptr %4, align 4, !tbaa !10
  %5 = load ptr, ptr %3, align 8, !tbaa !35
  %6 = getelementptr inbounds nuw %struct.Vec_Int_t_, ptr %5, i32 0, i32 1
  %7 = load i32, ptr %6, align 4, !tbaa !45
  %8 = load ptr, ptr %3, align 8, !tbaa !35
  %9 = getelementptr inbounds nuw %struct.Vec_Int_t_, ptr %8, i32 0, i32 0
  %10 = load i32, ptr %9, align 8, !tbaa !54
  %11 = icmp eq i32 %7, %10
  br i1 %11, label %12, label %26

12:                                               ; preds = %2
  %13 = load ptr, ptr %3, align 8, !tbaa !35
  %14 = getelementptr inbounds nuw %struct.Vec_Int_t_, ptr %13, i32 0, i32 0
  %15 = load i32, ptr %14, align 8, !tbaa !54
  %16 = icmp slt i32 %15, 16
  br i1 %16, label %17, label %19

17:                                               ; preds = %12
  %18 = load ptr, ptr %3, align 8, !tbaa !35
  call void @Vec_IntGrow(ptr noundef %18, i32 noundef 16)
  br label %25

19:                                               ; preds = %12
  %20 = load ptr, ptr %3, align 8, !tbaa !35
  %21 = load ptr, ptr %3, align 8, !tbaa !35
  %22 = getelementptr inbounds nuw %struct.Vec_Int_t_, ptr %21, i32 0, i32 0
  %23 = load i32, ptr %22, align 8, !tbaa !54
  %24 = mul nsw i32 2, %23
  call void @Vec_IntGrow(ptr noundef %20, i32 noundef %24)
  br label %25

25:                                               ; preds = %19, %17
  br label %26

26:                                               ; preds = %25, %2
  %27 = load i32, ptr %4, align 4, !tbaa !10
  %28 = load ptr, ptr %3, align 8, !tbaa !35
  %29 = getelementptr inbounds nuw %struct.Vec_Int_t_, ptr %28, i32 0, i32 2
  %30 = load ptr, ptr %29, align 8, !tbaa !52
  %31 = load ptr, ptr %3, align 8, !tbaa !35
  %32 = getelementptr inbounds nuw %struct.Vec_Int_t_, ptr %31, i32 0, i32 1
  %33 = load i32, ptr %32, align 4, !tbaa !45
  %34 = add nsw i32 %33, 1
  store i32 %34, ptr %32, align 4, !tbaa !45
  %35 = sext i32 %33 to i64
  %36 = getelementptr inbounds i32, ptr %30, i64 %35
  store i32 %27, ptr %36, align 4, !tbaa !10
  ret void
}

; Function Attrs: inlinehint nounwind uwtable
define internal i32 @Abc_Lit2Var(i32 noundef %0) #2 {
  %2 = alloca i32, align 4
  store i32 %0, ptr %2, align 4, !tbaa !10
  %3 = load i32, ptr %2, align 4, !tbaa !10
  %4 = ashr i32 %3, 1
  ret i32 %4
}

; Function Attrs: inlinehint nounwind uwtable
define internal void @Vec_StrWriteEntry(ptr noundef %0, i32 noundef %1, i8 noundef signext %2) #2 {
  %4 = alloca ptr, align 8
  %5 = alloca i32, align 4
  %6 = alloca i8, align 1
  store ptr %0, ptr %4, align 8, !tbaa !186
  store i32 %1, ptr %5, align 4, !tbaa !10
  store i8 %2, ptr %6, align 1, !tbaa !53
  %7 = load i8, ptr %6, align 1, !tbaa !53
  %8 = load ptr, ptr %4, align 8, !tbaa !186
  %9 = getelementptr inbounds nuw %struct.Vec_Str_t_, ptr %8, i32 0, i32 2
  %10 = load ptr, ptr %9, align 8, !tbaa !187
  %11 = load i32, ptr %5, align 4, !tbaa !10
  %12 = sext i32 %11 to i64
  %13 = getelementptr inbounds i8, ptr %10, i64 %12
  store i8 %7, ptr %13, align 1, !tbaa !53
  ret void
}

; Function Attrs: inlinehint nounwind uwtable
define internal void @Min_ManCleanVisitedValL(ptr noundef %0) #2 {
  %2 = alloca ptr, align 8
  %3 = alloca i32, align 4
  %4 = alloca i32, align 4
  store ptr %0, ptr %2, align 8, !tbaa !3
  call void @llvm.lifetime.start.p0(i64 4, ptr %3) #13
  call void @llvm.lifetime.start.p0(i64 4, ptr %4) #13
  store i32 0, ptr %3, align 4, !tbaa !10
  br label %5

5:                                                ; preds = %21, %1
  %6 = load i32, ptr %3, align 4, !tbaa !10
  %7 = load ptr, ptr %2, align 8, !tbaa !3
  %8 = getelementptr inbounds nuw %struct.Min_Man_t_, ptr %7, i32 0, i32 7
  %9 = call i32 @Vec_IntSize(ptr noundef %8)
  %10 = icmp slt i32 %6, %9
  br i1 %10, label %11, label %16

11:                                               ; preds = %5
  %12 = load ptr, ptr %2, align 8, !tbaa !3
  %13 = getelementptr inbounds nuw %struct.Min_Man_t_, ptr %12, i32 0, i32 7
  %14 = load i32, ptr %3, align 4, !tbaa !10
  %15 = call i32 @Vec_IntEntry(ptr noundef %13, i32 noundef %14)
  store i32 %15, ptr %4, align 4, !tbaa !10
  br label %16

16:                                               ; preds = %11, %5
  %17 = phi i1 [ false, %5 ], [ true, %11 ]
  br i1 %17, label %18, label %24

18:                                               ; preds = %16
  %19 = load ptr, ptr %2, align 8, !tbaa !3
  %20 = load i32, ptr %4, align 4, !tbaa !10
  call void @Min_ObjCleanValL(ptr noundef %19, i32 noundef %20)
  br label %21

21:                                               ; preds = %18
  %22 = load i32, ptr %3, align 4, !tbaa !10
  %23 = add nsw i32 %22, 1
  store i32 %23, ptr %3, align 4, !tbaa !10
  br label %5, !llvm.loop !58

24:                                               ; preds = %16
  %25 = load ptr, ptr %2, align 8, !tbaa !3
  %26 = getelementptr inbounds nuw %struct.Min_Man_t_, ptr %25, i32 0, i32 7
  call void @Vec_IntClear(ptr noundef %26)
  call void @llvm.lifetime.end.p0(i64 4, ptr %4) #13
  call void @llvm.lifetime.end.p0(i64 4, ptr %3) #13
  ret void
}

; Function Attrs: inlinehint nounwind uwtable
define internal void @Min_LitSetValL(ptr noundef %0, i32 noundef %1, i8 noundef signext %2) #2 {
  %4 = alloca ptr, align 8
  %5 = alloca i32, align 4
  %6 = alloca i8, align 1
  store ptr %0, ptr %4, align 8, !tbaa !3
  store i32 %1, ptr %5, align 4, !tbaa !10
  store i8 %2, ptr %6, align 1, !tbaa !53
  %7 = load ptr, ptr %4, align 8, !tbaa !3
  %8 = getelementptr inbounds nuw %struct.Min_Man_t_, ptr %7, i32 0, i32 6
  %9 = load i32, ptr %5, align 4, !tbaa !10
  %10 = load i8, ptr %6, align 1, !tbaa !53
  call void @Vec_StrWriteEntry(ptr noundef %8, i32 noundef %9, i8 noundef signext %10)
  %11 = load ptr, ptr %4, align 8, !tbaa !3
  %12 = getelementptr inbounds nuw %struct.Min_Man_t_, ptr %11, i32 0, i32 6
  %13 = load i32, ptr %5, align 4, !tbaa !10
  %14 = xor i32 %13, 1
  %15 = load i8, ptr %6, align 1, !tbaa !53
  %16 = icmp ne i8 %15, 0
  %17 = xor i1 %16, true
  %18 = zext i1 %17 to i32
  %19 = trunc i32 %18 to i8
  call void @Vec_StrWriteEntry(ptr noundef %12, i32 noundef %14, i8 noundef signext %19)
  %20 = load ptr, ptr %4, align 8, !tbaa !3
  %21 = getelementptr inbounds nuw %struct.Min_Man_t_, ptr %20, i32 0, i32 7
  %22 = load i32, ptr %5, align 4, !tbaa !10
  %23 = call i32 @Abc_Lit2Var(i32 noundef %22)
  call void @Vec_IntPush(ptr noundef %21, i32 noundef %23)
  ret void
}

; Function Attrs: inlinehint nounwind uwtable
define internal i32 @Vec_IntEntry(ptr noundef %0, i32 noundef %1) #2 {
  %3 = alloca ptr, align 8
  %4 = alloca i32, align 4
  store ptr %0, ptr %3, align 8, !tbaa !35
  store i32 %1, ptr %4, align 4, !tbaa !10
  %5 = load ptr, ptr %3, align 8, !tbaa !35
  %6 = getelementptr inbounds nuw %struct.Vec_Int_t_, ptr %5, i32 0, i32 2
  %7 = load ptr, ptr %6, align 8, !tbaa !52
  %8 = load i32, ptr %4, align 4, !tbaa !10
  %9 = sext i32 %8 to i64
  %10 = getelementptr inbounds i32, ptr %7, i64 %9
  %11 = load i32, ptr %10, align 4, !tbaa !10
  ret i32 %11
}

; Function Attrs: inlinehint nounwind uwtable
define internal i32 @Vec_IntSize(ptr noundef %0) #2 {
  %2 = alloca ptr, align 8
  store ptr %0, ptr %2, align 8, !tbaa !35
  %3 = load ptr, ptr %2, align 8, !tbaa !35
  %4 = getelementptr inbounds nuw %struct.Vec_Int_t_, ptr %3, i32 0, i32 1
  %5 = load i32, ptr %4, align 4, !tbaa !45
  ret i32 %5
}

; Function Attrs: nounwind uwtable
define signext i8 @Min_LitVerify(ptr noundef %0, i32 noundef %1, ptr noundef %2) #0 {
  %4 = alloca i8, align 1
  %5 = alloca ptr, align 8
  %6 = alloca i32, align 4
  %7 = alloca ptr, align 8
  %8 = alloca i32, align 4
  %9 = alloca i32, align 4
  %10 = alloca i8, align 1
  %11 = alloca i32, align 4
  store ptr %0, ptr %5, align 8, !tbaa !3
  store i32 %1, ptr %6, align 4, !tbaa !10
  store ptr %2, ptr %7, align 8, !tbaa !35
  call void @llvm.lifetime.start.p0(i64 4, ptr %8) #13
  call void @llvm.lifetime.start.p0(i64 4, ptr %9) #13
  call void @llvm.lifetime.start.p0(i64 1, ptr %10) #13
  %12 = load i32, ptr %6, align 4, !tbaa !10
  %13 = icmp slt i32 %12, 2
  br i1 %13, label %14, label %15

14:                                               ; preds = %3
  store i8 1, ptr %4, align 1
  store i32 1, ptr %11, align 4
  br label %39

15:                                               ; preds = %3
  store i32 0, ptr %8, align 4, !tbaa !10
  br label %16

16:                                               ; preds = %30, %15
  %17 = load i32, ptr %8, align 4, !tbaa !10
  %18 = load ptr, ptr %7, align 8, !tbaa !35
  %19 = call i32 @Vec_IntSize(ptr noundef %18)
  %20 = icmp slt i32 %17, %19
  br i1 %20, label %21, label %25

21:                                               ; preds = %16
  %22 = load ptr, ptr %7, align 8, !tbaa !35
  %23 = load i32, ptr %8, align 4, !tbaa !10
  %24 = call i32 @Vec_IntEntry(ptr noundef %22, i32 noundef %23)
  store i32 %24, ptr %9, align 4, !tbaa !10
  br label %25

25:                                               ; preds = %21, %16
  %26 = phi i1 [ false, %16 ], [ true, %21 ]
  br i1 %26, label %27, label %33

27:                                               ; preds = %25
  %28 = load ptr, ptr %5, align 8, !tbaa !3
  %29 = load i32, ptr %9, align 4, !tbaa !10
  call void @Min_LitSetValL(ptr noundef %28, i32 noundef %29, i8 noundef signext 1)
  br label %30

30:                                               ; preds = %27
  %31 = load i32, ptr %8, align 4, !tbaa !10
  %32 = add nsw i32 %31, 1
  store i32 %32, ptr %8, align 4, !tbaa !10
  br label %16, !llvm.loop !57

33:                                               ; preds = %25
  %34 = load ptr, ptr %5, align 8, !tbaa !3
  %35 = load i32, ptr %6, align 4, !tbaa !10
  %36 = call signext i8 @Min_LitVerify_rec(ptr noundef %34, i32 noundef %35)
  store i8 %36, ptr %10, align 1, !tbaa !53
  %37 = load ptr, ptr %5, align 8, !tbaa !3
  call void @Min_ManCleanVisitedValL(ptr noundef %37)
  %38 = load i8, ptr %10, align 1, !tbaa !53
  store i8 %38, ptr %4, align 1
  store i32 1, ptr %11, align 4
  br label %39

39:                                               ; preds = %33, %14
  call void @llvm.lifetime.end.p0(i64 1, ptr %10) #13
  call void @llvm.lifetime.end.p0(i64 4, ptr %9) #13
  call void @llvm.lifetime.end.p0(i64 4, ptr %8) #13
  %40 = load i8, ptr %4, align 1
  ret i8 %40
}