; Function Attrs: nounwind uwtable
define signext range(i8 0, 4) i8 @Min_LitVerify(ptr noundef %0, i32 noundef %1, ptr noundef readonly captures(none) %2) local_unnamed_addr #0 {
  %4 = icmp slt i32 %1, 2
  br i1 %4, label %60, label %.preheader

.preheader:                                       ; preds = %3
  %5 = getelementptr i8, ptr %2, i64 4
  %.val17 = load i32, ptr %5, align 4, !tbaa !30
  %6 = icmp sgt i32 %.val17, 0
  br i1 %6, label %.lr.ph, label %.critedge

.lr.ph:                                           ; preds = %.preheader
  %7 = getelementptr i8, ptr %2, i64 8
  %8 = getelementptr i8, ptr %0, i64 56
  %9 = getelementptr inbounds nuw i8, ptr %0, i64 64
  %10 = getelementptr inbounds nuw i8, ptr %0, i64 68
  %.phi.trans.insert.i.i = getelementptr inbounds nuw i8, ptr %0, i64 72
  br label %11

11:                                               ; preds = %.lr.ph, %Min_LitSetValL.exit
  %indvars.iv = phi i64 [ 0, %.lr.ph ], [ %indvars.iv.next, %Min_LitSetValL.exit ]
  %.val14 = load ptr, ptr %7, align 8, !tbaa !32
  %12 = getelementptr inbounds nuw i32, ptr %.val14, i64 %indvars.iv
  %13 = load i32, ptr %12, align 4, !tbaa !35
  %.val.i = load ptr, ptr %8, align 8, !tbaa !49
  %14 = sext i32 %13 to i64
  %15 = getelementptr inbounds i8, ptr %.val.i, i64 %14
  store i8 1, ptr %15, align 1, !tbaa !50
  %16 = xor i32 %13, 1
  %.val7.i = load ptr, ptr %8, align 8, !tbaa !49
  %17 = sext i32 %16 to i64
  %18 = getelementptr inbounds i8, ptr %.val7.i, i64 %17
  store i8 0, ptr %18, align 1, !tbaa !50
  %19 = load i32, ptr %10, align 4, !tbaa !30
  %20 = load i32, ptr %9, align 8, !tbaa !33
  %21 = icmp eq i32 %19, %20
  br i1 %21, label %22, label %.Vec_IntGrow.exit10_crit_edge.i.i

.Vec_IntGrow.exit10_crit_edge.i.i:                ; preds = %11
  %.pre.i.i = load ptr, ptr %.phi.trans.insert.i.i, align 8, !tbaa !32
  br label %Min_LitSetValL.exit

22:                                               ; preds = %11
  %23 = icmp slt i32 %19, 16
  br i1 %23, label %24, label %31

24:                                               ; preds = %22
  %25 = load ptr, ptr %.phi.trans.insert.i.i, align 8, !tbaa !32
  %.not9.i.i.i = icmp eq ptr %25, null
  br i1 %.not9.i.i.i, label %28, label %26

26:                                               ; preds = %24
  %27 = tail call dereferenceable_or_null(64) ptr @realloc(ptr noundef nonnull %25, i64 noundef 64) #28
  br label %Vec_IntGrow.exit.i.i

28:                                               ; preds = %24
  %29 = tail call noalias dereferenceable_or_null(64) ptr @malloc(i64 noundef 64) #26
  br label %Vec_IntGrow.exit.i.i

Vec_IntGrow.exit.i.i:                             ; preds = %28, %26
  %30 = phi ptr [ %27, %26 ], [ %29, %28 ]
  store ptr %30, ptr %.phi.trans.insert.i.i, align 8, !tbaa !32
  store i32 16, ptr %9, align 8, !tbaa !33
  br label %Min_LitSetValL.exit

31:                                               ; preds = %22
  %32 = shl nuw nsw i32 %19, 1
  %33 = load ptr, ptr %.phi.trans.insert.i.i, align 8, !tbaa !32
  %.not9.i9.i.i = icmp eq ptr %33, null
  %34 = zext nneg i32 %32 to i64
  %35 = shl nuw nsw i64 %34, 2
  br i1 %.not9.i9.i.i, label %38, label %36

36:                                               ; preds = %31
  %37 = tail call ptr @realloc(ptr noundef nonnull %33, i64 noundef %35) #28
  br label %40

38:                                               ; preds = %31
  %39 = tail call noalias ptr @malloc(i64 noundef %35) #26
  br label %40

40:                                               ; preds = %38, %36
  %41 = phi ptr [ %37, %36 ], [ %39, %38 ]
  store ptr %41, ptr %.phi.trans.insert.i.i, align 8, !tbaa !32
  store i32 %32, ptr %9, align 8, !tbaa !33
  br label %Min_LitSetValL.exit

Min_LitSetValL.exit:                              ; preds = %.Vec_IntGrow.exit10_crit_edge.i.i, %Vec_IntGrow.exit.i.i, %40
  %42 = phi ptr [ %.pre.i.i, %.Vec_IntGrow.exit10_crit_edge.i.i ], [ %41, %40 ], [ %30, %Vec_IntGrow.exit.i.i ]
  %43 = ashr i32 %13, 1
  %44 = load i32, ptr %10, align 4, !tbaa !30
  %45 = add nsw i32 %44, 1
  store i32 %45, ptr %10, align 4, !tbaa !30
  %46 = sext i32 %44 to i64
  %47 = getelementptr inbounds i32, ptr %42, i64 %46
  store i32 %43, ptr %47, align 4, !tbaa !35
  %indvars.iv.next = add nuw nsw i64 %indvars.iv, 1
  %.val = load i32, ptr %5, align 4, !tbaa !30
  %48 = sext i32 %.val to i64
  %49 = icmp slt i64 %indvars.iv.next, %48
  br i1 %49, label %11, label %.critedge, !llvm.loop !53

.critedge:                                        ; preds = %Min_LitSetValL.exit, %.preheader
  %50 = tail call signext i8 @Min_LitVerify_rec(ptr noundef %0, i32 noundef %1)
  %51 = getelementptr i8, ptr %0, i64 68
  %.val.i15 = load i32, ptr %51, align 4, !tbaa !30
  %52 = icmp sgt i32 %.val.i15, 0
  br i1 %52, label %.lr.ph.i, label %Min_ManCleanVisitedValL.exit

.lr.ph.i:                                         ; preds = %.critedge
  %53 = getelementptr i8, ptr %0, i64 72
  %.val7.i16 = load ptr, ptr %53, align 8, !tbaa !32
  %54 = getelementptr i8, ptr %0, i64 56
  %.val8.i = load ptr, ptr %54, align 8, !tbaa !49
  %wide.trip.count.i = zext nneg i32 %.val.i15 to i64
  br label %55

55:                                               ; preds = %55, %.lr.ph.i
  %indvars.iv.i = phi i64 [ 0, %.lr.ph.i ], [ %indvars.iv.next.i, %55 ]
  %56 = getelementptr inbounds nuw i32, ptr %.val7.i16, i64 %indvars.iv.i
  %57 = load i32, ptr %56, align 4, !tbaa !35
  %58 = sext i32 %57 to i64
  %59 = getelementptr inbounds i16, ptr %.val8.i, i64 %58
  store i16 514, ptr %59, align 2, !tbaa !51
  %indvars.iv.next.i = add nuw nsw i64 %indvars.iv.i, 1
  %exitcond.not.i = icmp eq i64 %indvars.iv.next.i, %wide.trip.count.i
  br i1 %exitcond.not.i, label %Min_ManCleanVisitedValL.exit, label %55, !llvm.loop !54

Min_ManCleanVisitedValL.exit:                     ; preds = %55, %.critedge
  store i32 0, ptr %51, align 4, !tbaa !30
  br label %60

60:                                               ; preds = %3, %Min_ManCleanVisitedValL.exit
  %.0 = phi i8 [ %50, %Min_ManCleanVisitedValL.exit ], [ 1, %3 ]
  ret i8 %.0
}